; Function Attrs: nounwind uwtable
define dso_local range(i32 -2, 1) i32 @tmpfile_rename(ptr noundef captures(none) initializes((0, 16)) %0, ptr noundef %1) local_unnamed_addr #0 {
  %3 = alloca ptr, align 8
  call void @llvm.lifetime.start.p0(i64 8, ptr nonnull %3) #5
  %4 = getelementptr inbounds nuw i8, ptr %0, i64 16
  %5 = load ptr, ptr %4, align 8, !tbaa !20
  store ptr %5, ptr %3, align 8, !tbaa !21
  %6 = call i32 @rename_tempfile(ptr noundef nonnull %3, ptr noundef %1) #5
  store ptr null, ptr %0, align 8, !tbaa !23
  %.sroa.2.0..sroa_idx = getelementptr inbounds nuw i8, ptr %0, i64 8
  store i32 -1, ptr %.sroa.2.0..sroa_idx, align 8, !tbaa !24
  %.sroa.3.0..sroa_idx = getelementptr inbounds nuw i8, ptr %0, i64 12
  call void @llvm.memset.p0.i64(ptr noundef nonnull align 4 dereferenceable(12) %.sroa.3.0..sroa_idx, i8 0, i64 12, i1 false)
  %7 = icmp slt i32 %6, 0
  %. = select i1 %7, i32 -2, i32 0
  call void @llvm.lifetime.end.p0(i64 8, ptr nonnull %3) #5
  ret i32 %.
}